target datalayout = "e-m:e-p270:32:32-p271:32:32-p272:64:64-i64:64-i128:128-f80:128-n8:16:32:64-S128"
target triple = "x86_64-pc-linux-gnu"

%"class.draco::PlyEncoder" = type { ptr, ptr, ptr }

; Function Attrs: mustprogress nounwind uwtable
define dso_local noundef zeroext i1 @_ZN5draco10PlyEncoder14ExitAndCleanupEb(ptr noundef nonnull align 8 dereferenceable(24) %0, i1 noundef zeroext %1) #4 align 2 {
  %3 = alloca ptr, align 8
  %4 = alloca i8, align 1
  store ptr %0, ptr %3, align 8, !tbaa !4
  %5 = zext i1 %1 to i8
  store i8 %5, ptr %4, align 1, !tbaa !42
  %6 = load ptr, ptr %3, align 8
  %7 = getelementptr inbounds nuw %"class.draco::PlyEncoder", ptr %6, i32 0, i32 2
  store ptr null, ptr %7, align 8, !tbaa !15
  %8 = getelementptr inbounds nuw %"class.draco::PlyEncoder", ptr %6, i32 0, i32 1
  store ptr null, ptr %8, align 8, !tbaa !14
  %9 = getelementptr inbounds nuw %"class.draco::PlyEncoder", ptr %6, i32 0, i32 0
  store ptr null, ptr %9, align 8, !tbaa !9
  %10 = load i8, ptr %4, align 1, !tbaa !42, !range !44, !noundef !45
  %11 = trunc i8 %10 to i1
  ret i1 %11
}

; Function Attrs: mustprogress uwtable
define dso_local noundef zeroext i1 @_ZN5draco10PlyEncoder14EncodeToBufferERKNS_10PointCloudEPNS_13EncoderBufferE(ptr noundef nonnull align 8 dereferenceable(24) %0, ptr noundef nonnull align 8 dereferenceable(164) %1, ptr noundef %2) #5 align 2 {
  %4 = alloca i1, align 1
  %5 = alloca ptr, align 8
  %6 = alloca ptr, align 8
  %7 = alloca ptr, align 8
  store ptr %0, ptr %5, align 8, !tbaa !4
  store ptr %1, ptr %6, align 8, !tbaa !16
  store ptr %2, ptr %7, align 8, !tbaa !23
  %8 = load ptr, ptr %5, align 8
  %9 = load ptr, ptr %6, align 8, !tbaa !16
  %10 = getelementptr inbounds nuw %"class.draco::PlyEncoder", ptr %8, i32 0, i32 1
  store ptr %9, ptr %10, align 8, !tbaa !14
  %11 = load ptr, ptr %7, align 8, !tbaa !23
  %12 = getelementptr inbounds nuw %"class.draco::PlyEncoder", ptr %8, i32 0, i32 0
  store ptr %11, ptr %12, align 8, !tbaa !9
  %13 = call noundef zeroext i1 @_ZN5draco10PlyEncoder14EncodeInternalEv(ptr noundef nonnull align 8 dereferenceable(24) %8)
  br i1 %13, label %16, label %14

14:                                               ; preds = %3
  %15 = call noundef zeroext i1 @_ZN5draco10PlyEncoder14ExitAndCleanupEb(ptr noundef nonnull align 8 dereferenceable(24) %8, i1 noundef zeroext false)
  store i1 %15, ptr %4, align 1
  br label %18

16:                                               ; preds = %3
  %17 = call noundef zeroext i1 @_ZN5draco10PlyEncoder14ExitAndCleanupEb(ptr noundef nonnull align 8 dereferenceable(24) %8, i1 noundef zeroext true)
  store i1 %17, ptr %4, align 1
  br label %18

18:                                               ; preds = %16, %14
  %19 = load i1, ptr %4, align 1
  ret i1 %19
}

; Function Attrs: mustprogress uwtable
define dso_local noundef zeroext i1 @_ZN5draco10PlyEncoder14EncodeToBufferERKNS_4MeshEPNS_13EncoderBufferE(ptr noundef nonnull align 8 dereferenceable(24) %0, ptr noundef nonnull align 8 dereferenceable(216) %1, ptr noundef %2) #5 align 2 {
  %4 = alloca ptr, align 8
  %5 = alloca ptr, align 8
  %6 = alloca ptr, align 8
  store ptr %0, ptr %4, align 8, !tbaa !4
  store ptr %1, ptr %5, align 8, !tbaa !28
  store ptr %2, ptr %6, align 8, !tbaa !23
  %7 = load ptr, ptr %4, align 8
  %8 = load ptr, ptr %5, align 8, !tbaa !28
  %9 = getelementptr inbounds nuw %"class.draco::PlyEncoder", ptr %7, i32 0, i32 2
  store ptr %8, ptr %9, align 8, !tbaa !15
  %10 = load ptr, ptr %5, align 8, !tbaa !28
  %11 = load ptr, ptr %6, align 8, !tbaa !23
  %12 = call noundef zeroext i1 @_ZN5draco10PlyEncoder14EncodeToBufferERKNS_10PointCloudEPNS_13EncoderBufferE(ptr noundef nonnull align 8 dereferenceable(24) %7, ptr noundef nonnull align 8 dereferenceable(164) %10, ptr noundef %11)
  ret i1 %12
}