; Function Attrs: mustprogress uwtable
define dso_local noundef zeroext i1 @_ZN5draco10PlyEncoder14EncodeToBufferERKNS_4MeshEPNS_13EncoderBufferE(ptr noundef nonnull align 8 captures(none) dereferenceable(24) initializes((0, 24)) %0, ptr noundef nonnull align 8 dereferenceable(216) %1, ptr noundef %2) local_unnamed_addr #4 align 2 {
  %4 = getelementptr inbounds nuw i8, ptr %0, i64 16
  store ptr %1, ptr %4, align 8, !tbaa !24
  %5 = getelementptr inbounds nuw i8, ptr %0, i64 8
  store ptr %1, ptr %5, align 8, !tbaa !9
  store ptr %2, ptr %0, align 8, !tbaa !14
  %6 = tail call noundef zeroext i1 @_ZN5draco10PlyEncoder14EncodeInternalEv(ptr noundef nonnull align 8 dereferenceable(24) %0)
  tail call void @llvm.memset.p0.i64(ptr noundef nonnull align 8 dereferenceable(24) %0, i8 0, i64 24, i1 false)
  ret i1 %6
}